target datalayout = "e-m:e-p270:32:32-p271:32:32-p272:64:64-i64:64-i128:128-f80:128-n8:16:32:64-S128"
target triple = "x86_64-pc-linux-gnu"

%struct.WebPIDecoder = type { i32, %struct.WebPDecParams, i32, ptr, %struct.VP8Io, %struct.MemBuffer, %struct.WebPDecBuffer, ptr, i64, i32 }
%struct.WebPDecParams = type { ptr, ptr, ptr, ptr, i32, ptr, ptr, ptr, ptr, ptr, ptr, ptr, ptr, ptr }
%struct.VP8Io = type { i32, i32, i32, i32, i32, ptr, ptr, ptr, i32, i32, ptr, ptr, ptr, ptr, i32, i64, ptr, i32, i32, i32, i32, i32, i32, i32, i32, i32, ptr }
%struct.MemBuffer = type { i32, i64, i64, i64, ptr, i64, ptr }
%struct.WebPDecBuffer = type { i32, i32, i32, i32, %union.anon, [4 x i32], ptr }
%union.anon = type { %struct.WebPYUVABuffer }
%struct.WebPYUVABuffer = type { ptr, ptr, ptr, ptr, i32, i32, i32, i32, i64, i64, i64, i64 }

; Function Attrs: nounwind uwtable
define internal i32 @RemapMemBuffer(ptr noundef %0, ptr noundef %1, i64 noundef %2) #0 {
  %4 = alloca i32, align 4
  %5 = alloca ptr, align 8
  %6 = alloca ptr, align 8
  %7 = alloca i64, align 8
  %8 = alloca ptr, align 8
  %9 = alloca ptr, align 8
  %10 = alloca ptr, align 8
  %11 = alloca i32, align 4
  store ptr %0, ptr %5, align 8, !tbaa !10
  store ptr %1, ptr %6, align 8, !tbaa !28
  store i64 %2, ptr %7, align 8, !tbaa !29
  call void @llvm.lifetime.start.p0(i64 8, ptr %8) #6
  %12 = load ptr, ptr %5, align 8, !tbaa !10
  %13 = getelementptr inbounds nuw %struct.WebPIDecoder, ptr %12, i32 0, i32 5
  store ptr %13, ptr %8, align 8, !tbaa !35
  call void @llvm.lifetime.start.p0(i64 8, ptr %9) #6
  %14 = load ptr, ptr %8, align 8, !tbaa !35
  %15 = getelementptr inbounds nuw %struct.MemBuffer, ptr %14, i32 0, i32 4
  %16 = load ptr, ptr %15, align 8, !tbaa !37
  store ptr %16, ptr %9, align 8, !tbaa !28
  call void @llvm.lifetime.start.p0(i64 8, ptr %10) #6
  %17 = load ptr, ptr %9, align 8, !tbaa !28
  %18 = icmp eq ptr %17, null
  br i1 %18, label %19, label %20

19:                                               ; preds = %3
  br label %26

20:                                               ; preds = %3
  %21 = load ptr, ptr %9, align 8, !tbaa !28
  %22 = load ptr, ptr %8, align 8, !tbaa !35
  %23 = getelementptr inbounds nuw %struct.MemBuffer, ptr %22, i32 0, i32 1
  %24 = load i64, ptr %23, align 8, !tbaa !45
  %25 = getelementptr inbounds nuw i8, ptr %21, i64 %24
  br label %26

26:                                               ; preds = %20, %19
  %27 = phi ptr [ null, %19 ], [ %25, %20 ]
  store ptr %27, ptr %10, align 8, !tbaa !28
  %28 = load i64, ptr %7, align 8, !tbaa !29
  %29 = load ptr, ptr %8, align 8, !tbaa !35
  %30 = getelementptr inbounds nuw %struct.MemBuffer, ptr %29, i32 0, i32 3
  %31 = load i64, ptr %30, align 8, !tbaa !60
  %32 = icmp ult i64 %28, %31
  br i1 %32, label %33, label %34

33:                                               ; preds = %26
  store i32 0, ptr %4, align 4
  store i32 1, ptr %11, align 4
  br label %55

34:                                               ; preds = %26
  %35 = load ptr, ptr %6, align 8, !tbaa !28
  %36 = load ptr, ptr %8, align 8, !tbaa !35
  %37 = getelementptr inbounds nuw %struct.MemBuffer, ptr %36, i32 0, i32 4
  store ptr %35, ptr %37, align 8, !tbaa !37
  %38 = load i64, ptr %7, align 8, !tbaa !29
  %39 = load ptr, ptr %8, align 8, !tbaa !35
  %40 = getelementptr inbounds nuw %struct.MemBuffer, ptr %39, i32 0, i32 3
  store i64 %38, ptr %40, align 8, !tbaa !60
  %41 = load ptr, ptr %8, align 8, !tbaa !35
  %42 = getelementptr inbounds nuw %struct.MemBuffer, ptr %41, i32 0, i32 2
  store i64 %38, ptr %42, align 8, !tbaa !59
  %43 = load ptr, ptr %5, align 8, !tbaa !10
  %44 = load ptr, ptr %8, align 8, !tbaa !35
  %45 = getelementptr inbounds nuw %struct.MemBuffer, ptr %44, i32 0, i32 4
  %46 = load ptr, ptr %45, align 8, !tbaa !37
  %47 = load ptr, ptr %8, align 8, !tbaa !35
  %48 = getelementptr inbounds nuw %struct.MemBuffer, ptr %47, i32 0, i32 1
  %49 = load i64, ptr %48, align 8, !tbaa !45
  %50 = getelementptr inbounds nuw i8, ptr %46, i64 %49
  %51 = load ptr, ptr %10, align 8, !tbaa !28
  %52 = ptrtoint ptr %50 to i64
  %53 = ptrtoint ptr %51 to i64
  %54 = sub i64 %52, %53
  call void @DoRemap(ptr noundef %43, i64 noundef %54)
  store i32 1, ptr %4, align 4
  store i32 1, ptr %11, align 4
  br label %55

55:                                               ; preds = %34, %33
  call void @llvm.lifetime.end.p0(i64 8, ptr %10) #6
  call void @llvm.lifetime.end.p0(i64 8, ptr %9) #6
  call void @llvm.lifetime.end.p0(i64 8, ptr %8) #6
  %56 = load i32, ptr %4, align 4
  ret i32 %56
}

; Function Attrs: nounwind uwtable
define internal i32 @CheckMemBufferMode(ptr noundef %0, i32 noundef %1) #0 {
  %3 = alloca i32, align 4
  %4 = alloca ptr, align 8
  %5 = alloca i32, align 4
  store ptr %0, ptr %4, align 8, !tbaa !35
  store i32 %1, ptr %5, align 4, !tbaa !39
  %6 = load ptr, ptr %4, align 8, !tbaa !35
  %7 = getelementptr inbounds nuw %struct.MemBuffer, ptr %6, i32 0, i32 0
  %8 = load i32, ptr %7, align 8, !tbaa !36
  %9 = icmp eq i32 %8, 0
  br i1 %9, label %10, label %14

10:                                               ; preds = %2
  %11 = load i32, ptr %5, align 4, !tbaa !39
  %12 = load ptr, ptr %4, align 8, !tbaa !35
  %13 = getelementptr inbounds nuw %struct.MemBuffer, ptr %12, i32 0, i32 0
  store i32 %11, ptr %13, align 8, !tbaa !36
  br label %22

14:                                               ; preds = %2
  %15 = load ptr, ptr %4, align 8, !tbaa !35
  %16 = getelementptr inbounds nuw %struct.MemBuffer, ptr %15, i32 0, i32 0
  %17 = load i32, ptr %16, align 8, !tbaa !36
  %18 = load i32, ptr %5, align 4, !tbaa !39
  %19 = icmp ne i32 %17, %18
  br i1 %19, label %20, label %21

20:                                               ; preds = %14
  store i32 0, ptr %3, align 4
  br label %23

21:                                               ; preds = %14
  br label %22

22:                                               ; preds = %21, %10
  store i32 1, ptr %3, align 4
  br label %23

23:                                               ; preds = %22, %20
  %24 = load i32, ptr %3, align 4
  ret i32 %24
}

; Function Attrs: nounwind uwtable
define internal i32 @IDecCheckStatus(ptr noundef %0) #0 {
  %2 = alloca i32, align 4
  %3 = alloca ptr, align 8
  store ptr %0, ptr %3, align 8, !tbaa !10
  %4 = load ptr, ptr %3, align 8, !tbaa !10
  %5 = getelementptr inbounds nuw %struct.WebPIDecoder, ptr %4, i32 0, i32 0
  %6 = load i32, ptr %5, align 8, !tbaa !12
  %7 = icmp eq i32 %6, 7
  br i1 %7, label %8, label %9

8:                                                ; preds = %1
  store i32 3, ptr %2, align 4
  br label %16

9:                                                ; preds = %1
  %10 = load ptr, ptr %3, align 8, !tbaa !10
  %11 = getelementptr inbounds nuw %struct.WebPIDecoder, ptr %10, i32 0, i32 0
  %12 = load i32, ptr %11, align 8, !tbaa !12
  %13 = icmp eq i32 %12, 6
  br i1 %13, label %14, label %15

14:                                               ; preds = %9
  store i32 0, ptr %2, align 4
  br label %16

15:                                               ; preds = %9
  store i32 5, ptr %2, align 4
  br label %16

16:                                               ; preds = %15, %14, %8
  %17 = load i32, ptr %2, align 4
  ret i32 %17
}

; Function Attrs: nounwind uwtable
define i32 @WebPIUpdate(ptr noundef %0, ptr noundef %1, i64 noundef %2) #0 {
  %4 = alloca i32, align 4
  %5 = alloca ptr, align 8
  %6 = alloca ptr, align 8
  %7 = alloca i64, align 8
  %8 = alloca i32, align 4
  %9 = alloca i32, align 4
  store ptr %0, ptr %5, align 8, !tbaa !10
  store ptr %1, ptr %6, align 8, !tbaa !28
  store i64 %2, ptr %7, align 8, !tbaa !29
  call void @llvm.lifetime.start.p0(i64 4, ptr %8) #6
  %10 = load ptr, ptr %5, align 8, !tbaa !10
  %11 = icmp eq ptr %10, null
  br i1 %11, label %15, label %12

12:                                               ; preds = %3
  %13 = load ptr, ptr %6, align 8, !tbaa !28
  %14 = icmp eq ptr %13, null
  br i1 %14, label %15, label %16

15:                                               ; preds = %12, %3
  store i32 2, ptr %4, align 4
  store i32 1, ptr %9, align 4
  br label %39

16:                                               ; preds = %12
  %17 = load ptr, ptr %5, align 8, !tbaa !10
  %18 = call i32 @IDecCheckStatus(ptr noundef %17)
  store i32 %18, ptr %8, align 4, !tbaa !39
  %19 = load i32, ptr %8, align 4, !tbaa !39
  %20 = icmp ne i32 %19, 5
  br i1 %20, label %21, label %23

21:                                               ; preds = %16
  %22 = load i32, ptr %8, align 4, !tbaa !39
  store i32 %22, ptr %4, align 4
  store i32 1, ptr %9, align 4
  br label %39

23:                                               ; preds = %16
  %24 = load ptr, ptr %5, align 8, !tbaa !10
  %25 = getelementptr inbounds nuw %struct.WebPIDecoder, ptr %24, i32 0, i32 5
  %26 = call i32 @CheckMemBufferMode(ptr noundef %25, i32 noundef 2)
  %27 = icmp ne i32 %26, 0
  br i1 %27, label %29, label %28

28:                                               ; preds = %23
  store i32 2, ptr %4, align 4
  store i32 1, ptr %9, align 4
  br label %39

29:                                               ; preds = %23
  %30 = load ptr, ptr %5, align 8, !tbaa !10
  %31 = load ptr, ptr %6, align 8, !tbaa !28
  %32 = load i64, ptr %7, align 8, !tbaa !29
  %33 = call i32 @RemapMemBuffer(ptr noundef %30, ptr noundef %31, i64 noundef %32)
  %34 = icmp ne i32 %33, 0
  br i1 %34, label %36, label %35

35:                                               ; preds = %29
  store i32 2, ptr %4, align 4
  store i32 1, ptr %9, align 4
  br label %39

36:                                               ; preds = %29
  %37 = load ptr, ptr %5, align 8, !tbaa !10
  %38 = call i32 @IDecode(ptr noundef %37)
  store i32 %38, ptr %4, align 4
  store i32 1, ptr %9, align 4
  br label %39

39:                                               ; preds = %36, %35, %28, %21, %15
  call void @llvm.lifetime.end.p0(i64 4, ptr %8) #6
  %40 = load i32, ptr %4, align 4
  ret i32 %40
}