; Function Attrs: nounwind uwtable
define i32 @WebPIUpdate(ptr noundef %0, ptr noundef %1, i64 noundef %2) local_unnamed_addr #0 {
  %4 = icmp eq ptr %0, null
  %5 = icmp eq ptr %1, null
  %or.cond = or i1 %4, %5
  br i1 %or.cond, label %CheckMemBufferMode.exit.thread, label %6

6:                                                ; preds = %3
  %.val = load i32, ptr %0, align 8, !tbaa !3
  %switch.selectcmp.i = icmp eq i32 %.val, 6
  %switch.select.i = select i1 %switch.selectcmp.i, i32 0, i32 5
  %switch.selectcmp3.i = icmp eq i32 %.val, 7
  %switch.select4.i = select i1 %switch.selectcmp3.i, i32 3, i32 %switch.select.i
  %.not = icmp eq i32 %switch.select4.i, 5
  br i1 %.not, label %7, label %CheckMemBufferMode.exit.thread

7:                                                ; preds = %6
  %8 = getelementptr inbounds nuw i8, ptr %0, i64 296
  %9 = load i32, ptr %8, align 8, !tbaa !20
  switch i32 %9, label %CheckMemBufferMode.exit.thread [
    i32 0, label %10
    i32 2, label %CheckMemBufferMode.exit
  ]

10:                                               ; preds = %7
  store i32 2, ptr %8, align 8, !tbaa !20
  br label %CheckMemBufferMode.exit

CheckMemBufferMode.exit:                          ; preds = %7, %10
  %11 = getelementptr inbounds nuw i8, ptr %0, i64 328
  %12 = load ptr, ptr %11, align 8, !tbaa !27
  %13 = icmp eq ptr %12, null
  br i1 %13, label %19, label %14

14:                                               ; preds = %CheckMemBufferMode.exit
  %15 = getelementptr inbounds nuw i8, ptr %0, i64 304
  %16 = load i64, ptr %15, align 8, !tbaa !46
  %17 = getelementptr inbounds nuw i8, ptr %12, i64 %16
  %18 = ptrtoint ptr %17 to i64
  br label %19

19:                                               ; preds = %14, %CheckMemBufferMode.exit
  %20 = phi i64 [ %18, %14 ], [ 0, %CheckMemBufferMode.exit ]
  %21 = getelementptr inbounds nuw i8, ptr %0, i64 320
  %22 = load i64, ptr %21, align 8, !tbaa !48
  %23 = icmp ult i64 %2, %22
  br i1 %23, label %CheckMemBufferMode.exit.thread, label %24

24:                                               ; preds = %19
  store ptr %1, ptr %11, align 8, !tbaa !27
  store i64 %2, ptr %21, align 8, !tbaa !48
  %25 = getelementptr inbounds nuw i8, ptr %0, i64 312
  store i64 %2, ptr %25, align 8, !tbaa !47
  %26 = getelementptr inbounds nuw i8, ptr %0, i64 304
  %27 = load i64, ptr %26, align 8, !tbaa !46
  %28 = getelementptr inbounds nuw i8, ptr %1, i64 %27
  %29 = ptrtoint ptr %28 to i64
  %30 = sub i64 %29, %20
  tail call fastcc void @DoRemap(ptr noundef nonnull %0, i64 noundef %30)
  %31 = tail call fastcc i32 @IDecode(ptr noundef %0)
  br label %CheckMemBufferMode.exit.thread

CheckMemBufferMode.exit.thread:                   ; preds = %7, %19, %6, %3, %24
  %.0 = phi i32 [ %31, %24 ], [ 2, %3 ], [ %switch.select4.i, %6 ], [ 2, %19 ], [ 2, %7 ]
  ret i32 %.0
}